                                      1 ;--------------------------------------------------------
                                      2 ; File Created by SDCC : free open source ISO C Compiler 
                                      3 ; Version 4.4.1 #14650 (Linux)
                                      4 ;--------------------------------------------------------
                                      5 	.module character
                                      6 	.optsdcc -msm83
                                      7 	
                                      8 ;--------------------------------------------------------
                                      9 ; Public variables in this module
                                     10 ;--------------------------------------------------------
                                     11 	.globl _Character_is_valid
                                     12 ;--------------------------------------------------------
                                     13 ; special function registers
                                     14 ;--------------------------------------------------------
                                     15 ;--------------------------------------------------------
                                     16 ; ram data
                                     17 ;--------------------------------------------------------
                                     18 	.area _DATA
                                     19 ;--------------------------------------------------------
                                     20 ; ram data
                                     21 ;--------------------------------------------------------
                                     22 	.area _INITIALIZED
                                     23 ;--------------------------------------------------------
                                     24 ; absolute external ram data
                                     25 ;--------------------------------------------------------
                                     26 	.area _DABS (ABS)
                                     27 ;--------------------------------------------------------
                                     28 ; global & static initialisations
                                     29 ;--------------------------------------------------------
                                     30 	.area _HOME
                                     31 	.area _GSINIT
                                     32 	.area _GSFINAL
                                     33 	.area _GSINIT
                                     34 ;--------------------------------------------------------
                                     35 ; Home
                                     36 ;--------------------------------------------------------
                                     37 	.area _HOME
                                     38 	.area _HOME
                                     39 ;--------------------------------------------------------
                                     40 ; code
                                     41 ;--------------------------------------------------------
                                     42 	.area _CODE
                                     43 ;src/character.c:4: bool Character_is_valid(Character ch) {
                                     44 ;	---------------------------------
                                     45 ; Function Character_is_valid
                                     46 ; ---------------------------------
    00000000                         47 _Character_is_valid::
                                     48 ;src/character.c:5: if (ch.ancestry == DWARF) {
    00000000 F8 03            [12]   49 	ldhl	sp,	#3
    00000002 4E               [ 8]   50 	ld	c, (hl)
                                     51 ;src/character.c:6: return ((ch.heritage >= DWARF_ANCIENT_BLOOD) && (ch.heritage <= DWARF_STRONG_BLOODED)) || (ch.heritage == VERS_AIUVARIN) || (ch.heritage == VERS_DROMAAR) || (ch.heritage == VERS_CHANGELING) || (ch.heritage == VERS_DRAGONBLOOD) || (ch.heritage == VERS_NEPHILIM);
    00000003 21 04 00         [12]   52 	ld	hl,#0x4
    00000006 39               [ 8]   53 	add	hl,sp
                                     54 ;src/character.c:5: if (ch.ancestry == DWARF) {
    00000007 79               [ 4]   55 	ld	a, c
    00000008 B7               [ 4]   56 	or	a, a
    00000009 20 24            [12]   57 	jr	NZ, 00122$
                                     58 ;src/character.c:6: return ((ch.heritage >= DWARF_ANCIENT_BLOOD) && (ch.heritage <= DWARF_STRONG_BLOODED)) || (ch.heritage == VERS_AIUVARIN) || (ch.heritage == VERS_DROMAAR) || (ch.heritage == VERS_CHANGELING) || (ch.heritage == VERS_DRAGONBLOOD) || (ch.heritage == VERS_NEPHILIM);
    0000000B 4E               [ 8]   59 	ld	c, (hl)
    0000000C 3E 04            [ 8]   60 	ld	a, #0x04
    0000000E 91               [ 4]   61 	sub	a, c
    0000000F 30 19            [12]   62 	jr	NC, 00127$
    00000011 79               [ 4]   63 	ld	a,c
    00000012 FE 2C            [ 8]   64 	cp	a,#0x2c
    00000014 28 14            [12]   65 	jr	Z, 00127$
    00000016 FE 2D            [ 8]   66 	cp	a,#0x2d
    00000018 28 10            [12]   67 	jr	Z, 00127$
    0000001A FE 2E            [ 8]   68 	cp	a,#0x2e
    0000001C 28 0C            [12]   69 	jr	Z, 00127$
    0000001E FE 2F            [ 8]   70 	cp	a,#0x2f
    00000020 28 08            [12]   71 	jr	Z, 00127$
    00000022 D6 30            [ 8]   72 	sub	a, #0x30
    00000024 28 04            [12]   73 	jr	Z, 00127$
    00000026 AF               [ 4]   74 	xor	a, a
    00000027 C3r68r01         [16]   75 	jp	00124$
    0000002A                         76 00127$:
    0000002A 3E 01            [ 8]   77 	ld	a, #0x01
    0000002C C3r68r01         [16]   78 	jp	00124$
    0000002F                         79 00122$:
                                     80 ;src/character.c:7: } else if (ch.ancestry == ELF) {
    0000002F 79               [ 4]   81 	ld	a, c
    00000030 3D               [ 4]   82 	dec	a
    00000031 20 29            [12]   83 	jr	NZ, 00119$
                                     84 ;src/character.c:8: return ((ch.heritage >= ELF_ANCIENT) && (ch.heritage <= ELF_WOODLAND)) || (ch.heritage == VERS_AIUVARIN) || (ch.heritage == VERS_DROMAAR) || (ch.heritage == VERS_CHANGELING) || (ch.heritage == VERS_DRAGONBLOOD) || (ch.heritage == VERS_NEPHILIM);
    00000033 4E               [ 8]   85 	ld	c, (hl)
    00000034 79               [ 4]   86 	ld	a, c
    00000035 D6 05            [ 8]   87 	sub	a, #0x05
    00000037 38 05            [12]   88 	jr	C, 00161$
    00000039 3E 0A            [ 8]   89 	ld	a, #0x0a
    0000003B 91               [ 4]   90 	sub	a, c
    0000003C 30 19            [12]   91 	jr	NC, 00145$
    0000003E                         92 00161$:
    0000003E 79               [ 4]   93 	ld	a,c
    0000003F FE 2C            [ 8]   94 	cp	a,#0x2c
    00000041 28 14            [12]   95 	jr	Z, 00145$
    00000043 FE 2D            [ 8]   96 	cp	a,#0x2d
    00000045 28 10            [12]   97 	jr	Z, 00145$
    00000047 FE 2E            [ 8]   98 	cp	a,#0x2e
    00000049 28 0C            [12]   99 	jr	Z, 00145$
    0000004B FE 2F            [ 8]  100 	cp	a,#0x2f
    0000004D 28 08            [12]  101 	jr	Z, 00145$
    0000004F D6 30            [ 8]  102 	sub	a, #0x30
    00000051 28 04            [12]  103 	jr	Z, 00145$
    00000053 AF               [ 4]  104 	xor	a, a
    00000054 C3r68r01         [16]  105 	jp	00124$
    00000057                        106 00145$:
    00000057 3E 01            [ 8]  107 	ld	a, #0x01
    00000059 C3r68r01         [16]  108 	jp	00124$
    0000005C                        109 00119$:
                                    110 ;src/character.c:9: } else if (ch.ancestry == GNOME) {
    0000005C 79               [ 4]  111 	ld	a, c
    0000005D D6 02            [ 8]  112 	sub	a, #0x02
    0000005F 20 29            [12]  113 	jr	NZ, 00116$
                                    114 ;src/character.c:10: return ((ch.heritage >= GNOME_CHAMELEON) && (ch.heritage <= GNOME_WELLSPRING)) || (ch.heritage == VERS_AIUVARIN) || (ch.heritage == VERS_DROMAAR) || (ch.heritage == VERS_CHANGELING) || (ch.heritage == VERS_DRAGONBLOOD) || (ch.heritage == VERS_NEPHILIM);
    00000061 4E               [ 8]  115 	ld	c, (hl)
    00000062 79               [ 4]  116 	ld	a, c
    00000063 D6 0B            [ 8]  117 	sub	a, #0x0b
    00000065 38 05            [12]  118 	jr	C, 00179$
    00000067 3E 0F            [ 8]  119 	ld	a, #0x0f
    00000069 91               [ 4]  120 	sub	a, c
    0000006A 30 19            [12]  121 	jr	NC, 00163$
    0000006C                        122 00179$:
    0000006C 79               [ 4]  123 	ld	a,c
    0000006D FE 2C            [ 8]  124 	cp	a,#0x2c
    0000006F 28 14            [12]  125 	jr	Z, 00163$
    00000071 FE 2D            [ 8]  126 	cp	a,#0x2d
    00000073 28 10            [12]  127 	jr	Z, 00163$
    00000075 FE 2E            [ 8]  128 	cp	a,#0x2e
    00000077 28 0C            [12]  129 	jr	Z, 00163$
    00000079 FE 2F            [ 8]  130 	cp	a,#0x2f
    0000007B 28 08            [12]  131 	jr	Z, 00163$
    0000007D D6 30            [ 8]  132 	sub	a, #0x30
    0000007F 28 04            [12]  133 	jr	Z, 00163$
    00000081 AF               [ 4]  134 	xor	a, a
    00000082 C3r68r01         [16]  135 	jp	00124$
    00000085                        136 00163$:
    00000085 3E 01            [ 8]  137 	ld	a, #0x01
    00000087 C3r68r01         [16]  138 	jp	00124$
    0000008A                        139 00116$:
                                    140 ;src/character.c:11: } else if (ch.ancestry == GOBLIN) {
    0000008A 79               [ 4]  141 	ld	a, c
    0000008B D6 03            [ 8]  142 	sub	a, #0x03
    0000008D 20 29            [12]  143 	jr	NZ, 00113$
                                    144 ;src/character.c:12: return ((ch.heritage >= GOBLIN_CHARHIDE) && (ch.heritage <= GOBLIN_UNBREAKABLE)) || (ch.heritage == VERS_AIUVARIN) || (ch.heritage == VERS_DROMAAR) || (ch.heritage == VERS_CHANGELING) || (ch.heritage == VERS_DRAGONBLOOD) || (ch.heritage == VERS_NEPHILIM);
    0000008F 4E               [ 8]  145 	ld	c, (hl)
    00000090 79               [ 4]  146 	ld	a, c
    00000091 D6 10            [ 8]  147 	sub	a, #0x10
    00000093 38 05            [12]  148 	jr	C, 00197$
    00000095 3E 14            [ 8]  149 	ld	a, #0x14
    00000097 91               [ 4]  150 	sub	a, c
    00000098 30 19            [12]  151 	jr	NC, 00181$
    0000009A                        152 00197$:
    0000009A 79               [ 4]  153 	ld	a,c
    0000009B FE 2C            [ 8]  154 	cp	a,#0x2c
    0000009D 28 14            [12]  155 	jr	Z, 00181$
    0000009F FE 2D            [ 8]  156 	cp	a,#0x2d
    000000A1 28 10            [12]  157 	jr	Z, 00181$
    000000A3 FE 2E            [ 8]  158 	cp	a,#0x2e
    000000A5 28 0C            [12]  159 	jr	Z, 00181$
    000000A7 FE 2F            [ 8]  160 	cp	a,#0x2f
    000000A9 28 08            [12]  161 	jr	Z, 00181$
    000000AB D6 30            [ 8]  162 	sub	a, #0x30
    000000AD 28 04            [12]  163 	jr	Z, 00181$
    000000AF AF               [ 4]  164 	xor	a, a
    000000B0 C3r68r01         [16]  165 	jp	00124$
    000000B3                        166 00181$:
    000000B3 3E 01            [ 8]  167 	ld	a, #0x01
    000000B5 C3r68r01         [16]  168 	jp	00124$
    000000B8                        169 00113$:
                                    170 ;src/character.c:13: } else if (ch.ancestry == HALFLING) {
    000000B8 79               [ 4]  171 	ld	a, c
    000000B9 D6 04            [ 8]  172 	sub	a, #0x04
    000000BB 20 29            [12]  173 	jr	NZ, 00110$
                                    174 ;src/character.c:14: return ((ch.heritage >= HALFLING_GUTSY) && (ch.heritage <= HALFLING_WILDWOOD)) || (ch.heritage == VERS_AIUVARIN) || (ch.heritage == VERS_DROMAAR) || (ch.heritage == VERS_CHANGELING) || (ch.heritage == VERS_DRAGONBLOOD) || (ch.heritage == VERS_NEPHILIM);
    000000BD 4E               [ 8]  175 	ld	c, (hl)
    000000BE 79               [ 4]  176 	ld	a, c
    000000BF D6 15            [ 8]  177 	sub	a, #0x15
    000000C1 38 05            [12]  178 	jr	C, 00215$
    000000C3 3E 19            [ 8]  179 	ld	a, #0x19
    000000C5 91               [ 4]  180 	sub	a, c
    000000C6 30 19            [12]  181 	jr	NC, 00199$
    000000C8                        182 00215$:
    000000C8 79               [ 4]  183 	ld	a,c
    000000C9 FE 2C            [ 8]  184 	cp	a,#0x2c
    000000CB 28 14            [12]  185 	jr	Z, 00199$
    000000CD FE 2D            [ 8]  186 	cp	a,#0x2d
    000000CF 28 10            [12]  187 	jr	Z, 00199$
    000000D1 FE 2E            [ 8]  188 	cp	a,#0x2e
    000000D3 28 0C            [12]  189 	jr	Z, 00199$
    000000D5 FE 2F            [ 8]  190 	cp	a,#0x2f
    000000D7 28 08            [12]  191 	jr	Z, 00199$
    000000D9 D6 30            [ 8]  192 	sub	a, #0x30
    000000DB 28 04            [12]  193 	jr	Z, 00199$
    000000DD AF               [ 4]  194 	xor	a, a
    000000DE C3r68r01         [16]  195 	jp	00124$
    000000E1                        196 00199$:
    000000E1 3E 01            [ 8]  197 	ld	a, #0x01
    000000E3 C3r68r01         [16]  198 	jp	00124$
    000000E6                        199 00110$:
                                    200 ;src/character.c:15: } else if (ch.ancestry == HUMAN) {
    000000E6 79               [ 4]  201 	ld	a, c
    000000E7 D6 05            [ 8]  202 	sub	a, #0x05
    000000E9 20 24            [12]  203 	jr	NZ, 00107$
                                    204 ;src/character.c:16: return (ch.heritage == HUMAN_SKILLED) || (ch.heritage == HUMAN_VERSATILE) || (ch.heritage == VERS_AIUVARIN) || (ch.heritage == VERS_DROMAAR) || (ch.heritage == VERS_CHANGELING) || (ch.heritage == VERS_DRAGONBLOOD) || (ch.heritage == VERS_NEPHILIM);
    000000EB 7E               [ 8]  205 	ld	a, (hl)
    000000EC FE 1A            [ 8]  206 	cp	a, #0x1a
    000000EE 28 1B            [12]  207 	jr	Z, 00217$
    000000F0 FE 1B            [ 8]  208 	cp	a, #0x1b
    000000F2 28 17            [12]  209 	jr	Z, 00217$
    000000F4 FE 2C            [ 8]  210 	cp	a, #0x2c
    000000F6 28 13            [12]  211 	jr	Z, 00217$
    000000F8 FE 2D            [ 8]  212 	cp	a, #0x2d
    000000FA 28 0F            [12]  213 	jr	Z, 00217$
    000000FC FE 2E            [ 8]  214 	cp	a, #0x2e
    000000FE 28 0B            [12]  215 	jr	Z, 00217$
    00000100 FE 2F            [ 8]  216 	cp	a, #0x2f
    00000102 28 07            [12]  217 	jr	Z, 00217$
    00000104 D6 30            [ 8]  218 	sub	a, #0x30
    00000106 28 03            [12]  219 	jr	Z, 00217$
    00000108 AF               [ 4]  220 	xor	a, a
    00000109 18 5D            [12]  221 	jr	00124$
    0000010B                        222 00217$:
    0000010B 3E 01            [ 8]  223 	ld	a, #0x01
    0000010D 18 59            [12]  224 	jr	00124$
    0000010F                        225 00107$:
                                    226 ;src/character.c:17: } else if (ch.ancestry == LESHY) {
    0000010F 79               [ 4]  227 	ld	a, c
    00000110 D6 06            [ 8]  228 	sub	a, #0x06
    00000112 20 27            [12]  229 	jr	NZ, 00104$
                                    230 ;src/character.c:18: return ((ch.heritage >= LESHY_CACTUS) && (ch.heritage <= LESHY_VINE)) || (ch.heritage == VERS_AIUVARIN) || (ch.heritage == VERS_DROMAAR) || (ch.heritage == VERS_CHANGELING) || (ch.heritage == VERS_DRAGONBLOOD) || (ch.heritage == VERS_NEPHILIM);
    00000114 4E               [ 8]  231 	ld	c, (hl)
    00000115 79               [ 4]  232 	ld	a, c
    00000116 D6 1C            [ 8]  233 	sub	a, #0x1c
    00000118 38 05            [12]  234 	jr	C, 00251$
    0000011A 3E 24            [ 8]  235 	ld	a, #0x24
    0000011C 91               [ 4]  236 	sub	a, c
    0000011D 30 18            [12]  237 	jr	NC, 00235$
    0000011F                        238 00251$:
    0000011F 79               [ 4]  239 	ld	a,c
    00000120 FE 2C            [ 8]  240 	cp	a,#0x2c
    00000122 28 13            [12]  241 	jr	Z, 00235$
    00000124 FE 2D            [ 8]  242 	cp	a,#0x2d
    00000126 28 0F            [12]  243 	jr	Z, 00235$
    00000128 FE 2E            [ 8]  244 	cp	a,#0x2e
    0000012A 28 0B            [12]  245 	jr	Z, 00235$
    0000012C FE 2F            [ 8]  246 	cp	a,#0x2f
    0000012E 28 07            [12]  247 	jr	Z, 00235$
    00000130 D6 30            [ 8]  248 	sub	a, #0x30
    00000132 28 03            [12]  249 	jr	Z, 00235$
    00000134 AF               [ 4]  250 	xor	a, a
    00000135 18 31            [12]  251 	jr	00124$
    00000137                        252 00235$:
    00000137 3E 01            [ 8]  253 	ld	a, #0x01
    00000139 18 2D            [12]  254 	jr	00124$
    0000013B                        255 00104$:
                                    256 ;src/character.c:19: } else if (ch.ancestry == ORC) {
    0000013B 79               [ 4]  257 	ld	a, c
    0000013C D6 07            [ 8]  258 	sub	a, #0x07
    0000013E 20 27            [12]  259 	jr	NZ, 00108$
                                    260 ;src/character.c:20: return ((ch.heritage >= ORC_BADLANDS) && (ch.heritage <= ORC_WINTER)) || (ch.heritage == VERS_AIUVARIN) || (ch.heritage == VERS_DROMAAR) || (ch.heritage == VERS_CHANGELING) || (ch.heritage == VERS_DRAGONBLOOD) || (ch.heritage == VERS_NEPHILIM);
    00000140 4E               [ 8]  261 	ld	c, (hl)
    00000141 79               [ 4]  262 	ld	a, c
    00000142 D6 25            [ 8]  263 	sub	a, #0x25
    00000144 38 05            [12]  264 	jr	C, 00269$
    00000146 3E 2B            [ 8]  265 	ld	a, #0x2b
    00000148 91               [ 4]  266 	sub	a, c
    00000149 30 18            [12]  267 	jr	NC, 00253$
    0000014B                        268 00269$:
    0000014B 79               [ 4]  269 	ld	a,c
    0000014C FE 2C            [ 8]  270 	cp	a,#0x2c
    0000014E 28 13            [12]  271 	jr	Z, 00253$
    00000150 FE 2D            [ 8]  272 	cp	a,#0x2d
    00000152 28 0F            [12]  273 	jr	Z, 00253$
    00000154 FE 2E            [ 8]  274 	cp	a,#0x2e
    00000156 28 0B            [12]  275 	jr	Z, 00253$
    00000158 FE 2F            [ 8]  276 	cp	a,#0x2f
    0000015A 28 07            [12]  277 	jr	Z, 00253$
    0000015C D6 30            [ 8]  278 	sub	a, #0x30
    0000015E 28 03            [12]  279 	jr	Z, 00253$
    00000160 AF               [ 4]  280 	xor	a, a
    00000161 18 05            [12]  281 	jr	00124$
    00000163                        282 00253$:
    00000163 3E 01            [ 8]  283 	ld	a, #0x01
    00000165 18 01            [12]  284 	jr	00124$
    00000167                        285 00108$:
                                    286 ;src/character.c:23: return false;
    00000167 AF               [ 4]  287 	xor	a, a
    00000168                        288 00124$:
                                    289 ;src/character.c:24: }
    00000168 E1               [12]  290 	pop	hl
    00000169 E8 03            [16]  291 	add	sp, #3
    0000016B E9               [ 4]  292 	jp	(hl)
                                    293 	.area _CODE
                                    294 	.area _INITIALIZER
                                    295 	.area _CABS (ABS)
